target datalayout = "e-m:e-p270:32:32-p271:32:32-p272:64:64-i64:64-i128:128-f80:128-n8:16:32:64-S128"
target triple = "x86_64-pc-linux-gnu"

; Function Attrs: nounwind uwtable
define dso_local void @git_config_push_parameter(ptr noundef %0) #0 {
  %2 = alloca ptr, align 8
  %3 = alloca ptr, align 8
  %4 = alloca ptr, align 8
  store ptr %0, ptr %2, align 8, !tbaa !4
  call void @llvm.lifetime.start.p0(i64 8, ptr %3) #13
  %5 = load ptr, ptr %2, align 8, !tbaa !4
  %6 = call ptr @strchr(ptr noundef %5, i32 noundef 61) #14
  store ptr %6, ptr %3, align 8, !tbaa !4
  %7 = load ptr, ptr %3, align 8, !tbaa !4
  %8 = icmp ne ptr %7, null
  br i1 %8, label %9, label %21

9:                                                ; preds = %1
  call void @llvm.lifetime.start.p0(i64 8, ptr %4) #13
  %10 = load ptr, ptr %2, align 8, !tbaa !4
  %11 = load ptr, ptr %3, align 8, !tbaa !4
  %12 = load ptr, ptr %2, align 8, !tbaa !4
  %13 = ptrtoint ptr %11 to i64
  %14 = ptrtoint ptr %12 to i64
  %15 = sub i64 %13, %14
  %16 = call ptr @xmemdupz(ptr noundef %10, i64 noundef %15)
  store ptr %16, ptr %4, align 8, !tbaa !4
  %17 = load ptr, ptr %4, align 8, !tbaa !4
  %18 = load ptr, ptr %3, align 8, !tbaa !4
  %19 = getelementptr inbounds i8, ptr %18, i64 1
  call void @git_config_push_split_parameter(ptr noundef %17, ptr noundef %19)
  %20 = load ptr, ptr %4, align 8, !tbaa !4
  call void @free(ptr noundef %20) #13
  call void @llvm.lifetime.end.p0(i64 8, ptr %4) #13
  br label %23

21:                                               ; preds = %1
  %22 = load ptr, ptr %2, align 8, !tbaa !4
  call void @git_config_push_split_parameter(ptr noundef %22, ptr noundef null)
  br label %23

23:                                               ; preds = %21, %9
  call void @llvm.lifetime.end.p0(i64 8, ptr %3) #13
  ret void
}