; Function Attrs: nounwind uwtable
define dso_local void @git_config_push_parameter(ptr noundef %0) local_unnamed_addr #0 {
  %2 = tail call ptr @strchr(ptr noundef nonnull dereferenceable(1) %0, i32 noundef 61) #29
  %.not = icmp eq ptr %2, null
  br i1 %.not, label %9, label %3

3:                                                ; preds = %1
  %4 = ptrtoint ptr %2 to i64
  %5 = ptrtoint ptr %0 to i64
  %6 = sub i64 %4, %5
  %7 = tail call ptr @xmemdupz(ptr noundef nonnull %0, i64 noundef %6) #30
  %8 = getelementptr inbounds nuw i8, ptr %2, i64 1
  tail call fastcc void @git_config_push_split_parameter(ptr noundef %7, ptr noundef nonnull %8)
  tail call void @free(ptr noundef %7) #30
  br label %10

9:                                                ; preds = %1
  tail call fastcc void @git_config_push_split_parameter(ptr noundef nonnull %0, ptr noundef null)
  br label %10

10:                                               ; preds = %9, %3
  ret void
}